; Function Attrs: mustprogress uwtable
define void @_Z34grpc_maybe_wait_for_async_shutdownv() local_unnamed_addr #3 personality ptr @__gxx_personality_v0 {
entry:
  tail call void @gpr_once_init(ptr noundef nonnull @_ZL12g_basic_init, ptr noundef nonnull @_ZL13do_basic_initv)
  %0 = load ptr, ptr @_ZL9g_init_mu, align 8
  tail call void @_ZN4absl12lts_202308025Mutex4LockEv(ptr noundef nonnull align 8 dereferenceable(8) %0)
  br label %while.cond

while.cond:                                       ; preds = %while.body, %entry
  %.b1 = load i1, ptr @_ZL15g_shutting_down, align 1
  br i1 %.b1, label %while.body, label %while.end

while.body:                                       ; preds = %while.cond
  %1 = load ptr, ptr @_ZL18g_shutting_down_cv, align 8
  %2 = load ptr, ptr @_ZL9g_init_mu, align 8
  invoke void @_ZN4absl12lts_202308027CondVar4WaitEPNS0_5MutexE(ptr noundef nonnull align 8 dereferenceable(8) %1, ptr noundef %2)
          to label %while.cond unwind label %lpad, !llvm.loop !4

lpad:                                             ; preds = %while.body
  %3 = landingpad { ptr, i32 }
          cleanup
  invoke void @_ZN4absl12lts_202308025Mutex6UnlockEv(ptr noundef nonnull align 8 dereferenceable(8) %0)
          to label %_ZN4absl12lts_202308029MutexLockD2Ev.exit unwind label %terminate.lpad.i

terminate.lpad.i:                                 ; preds = %lpad
  %4 = landingpad { ptr, i32 }
          catch ptr null
  %5 = extractvalue { ptr, i32 } %4, 0
  tail call void @__clang_call_terminate(ptr %5) #15
  unreachable

_ZN4absl12lts_202308029MutexLockD2Ev.exit:        ; preds = %lpad
  resume { ptr, i32 } %3

while.end:                                        ; preds = %while.cond
  invoke void @_ZN4absl12lts_202308025Mutex6UnlockEv(ptr noundef nonnull align 8 dereferenceable(8) %0)
          to label %_ZN4absl12lts_202308029MutexLockD2Ev.exit3 unwind label %terminate.lpad.i2

terminate.lpad.i2:                                ; preds = %while.end
  %6 = landingpad { ptr, i32 }
          catch ptr null
  %7 = extractvalue { ptr, i32 } %6, 0
  tail call void @__clang_call_terminate(ptr %7) #15
  unreachable

_ZN4absl12lts_202308029MutexLockD2Ev.exit3:       ; preds = %while.end
  ret void
}